target datalayout = "e-m:e-p270:32:32-p271:32:32-p272:64:64-i64:64-i128:128-f80:128-n8:16:32:64-S128"
target triple = "x86_64-pc-linux-gnu"

%struct.OpusRangeCoder = type { %struct.GetBitContext, %struct.RawBitsContext, i32, i32, i32, [1287 x i8], ptr, i32, i32, i32 }
%struct.GetBitContext = type { ptr, ptr, i32, i32, i32 }
%struct.RawBitsContext = type { ptr, i32, i32, i32 }

@.str = private unnamed_addr constant [30 x i8] c"Assertion %s failed at %s:%d\0A\00", align 1
@.str.1 = private unnamed_addr constant [30 x i8] c"rc->rng_cur < rc->rb.position\00", align 1
@.str.2 = private unnamed_addr constant [21 x i8] c"libavcodec/opus/rc.c\00", align 1
@ff_log2_tab = external constant [256 x i8], align 16

; Function Attrs: alwaysinline nounwind uwtable
define internal void @opus_rc_enc_carryout(ptr noundef %0, i32 noundef %1) #2 {
  %3 = alloca ptr, align 8
  %4 = alloca i32, align 4
  %5 = alloca i32, align 4
  %6 = alloca i32, align 4
  %7 = alloca i32, align 4
  store ptr %0, ptr %3, align 8, !tbaa !4
  store i32 %1, ptr %4, align 4, !tbaa !13
  call void @llvm.lifetime.start.p0(i64 4, ptr %5) #9
  %8 = load i32, ptr %4, align 4, !tbaa !13
  %9 = ashr i32 %8, 8
  store i32 %9, ptr %5, align 4, !tbaa !13
  call void @llvm.lifetime.start.p0(i64 4, ptr %6) #9
  %10 = load i32, ptr %5, align 4, !tbaa !13
  %11 = add nsw i32 255, %10
  %12 = and i32 %11, 255
  store i32 %12, ptr %6, align 4, !tbaa !13
  %13 = load i32, ptr %4, align 4, !tbaa !13
  %14 = icmp eq i32 %13, 255
  br i1 %14, label %15, label %20

15:                                               ; preds = %2
  %16 = load ptr, ptr %3, align 8, !tbaa !4
  %17 = getelementptr inbounds nuw %struct.OpusRangeCoder, ptr %16, i32 0, i32 7
  %18 = load i32, ptr %17, align 8, !tbaa !44
  %19 = add nsw i32 %18, 1
  store i32 %19, ptr %17, align 8, !tbaa !44
  store i32 1, ptr %7, align 4
  br label %76

20:                                               ; preds = %2
  %21 = load ptr, ptr %3, align 8, !tbaa !4
  %22 = getelementptr inbounds nuw %struct.OpusRangeCoder, ptr %21, i32 0, i32 8
  %23 = load i32, ptr %22, align 4, !tbaa !43
  %24 = load i32, ptr %5, align 4, !tbaa !13
  %25 = add nsw i32 %23, %24
  %26 = trunc i32 %25 to i8
  %27 = load ptr, ptr %3, align 8, !tbaa !4
  %28 = getelementptr inbounds nuw %struct.OpusRangeCoder, ptr %27, i32 0, i32 6
  %29 = load ptr, ptr %28, align 8, !tbaa !31
  %30 = getelementptr inbounds i8, ptr %29, i64 0
  store i8 %26, ptr %30, align 1, !tbaa !28
  %31 = load ptr, ptr %3, align 8, !tbaa !4
  %32 = getelementptr inbounds nuw %struct.OpusRangeCoder, ptr %31, i32 0, i32 8
  %33 = load i32, ptr %32, align 4, !tbaa !43
  %34 = icmp sge i32 %33, 0
  %35 = zext i1 %34 to i32
  %36 = load ptr, ptr %3, align 8, !tbaa !4
  %37 = getelementptr inbounds nuw %struct.OpusRangeCoder, ptr %36, i32 0, i32 6
  %38 = load ptr, ptr %37, align 8, !tbaa !31
  %39 = sext i32 %35 to i64
  %40 = getelementptr inbounds i8, ptr %38, i64 %39
  store ptr %40, ptr %37, align 8, !tbaa !31
  br label %41

41:                                               ; preds = %53, %20
  %42 = load ptr, ptr %3, align 8, !tbaa !4
  %43 = getelementptr inbounds nuw %struct.OpusRangeCoder, ptr %42, i32 0, i32 7
  %44 = load i32, ptr %43, align 8, !tbaa !44
  %45 = icmp sgt i32 %44, 0
  br i1 %45, label %46, label %58

46:                                               ; preds = %41
  %47 = load i32, ptr %6, align 4, !tbaa !13
  %48 = trunc i32 %47 to i8
  %49 = load ptr, ptr %3, align 8, !tbaa !4
  %50 = getelementptr inbounds nuw %struct.OpusRangeCoder, ptr %49, i32 0, i32 6
  %51 = load ptr, ptr %50, align 8, !tbaa !31
  %52 = getelementptr inbounds nuw i8, ptr %51, i32 1
  store ptr %52, ptr %50, align 8, !tbaa !31
  store i8 %48, ptr %51, align 1, !tbaa !28
  br label %53

53:                                               ; preds = %46
  %54 = load ptr, ptr %3, align 8, !tbaa !4
  %55 = getelementptr inbounds nuw %struct.OpusRangeCoder, ptr %54, i32 0, i32 7
  %56 = load i32, ptr %55, align 8, !tbaa !44
  %57 = add nsw i32 %56, -1
  store i32 %57, ptr %55, align 8, !tbaa !44
  br label %41, !llvm.loop !47

58:                                               ; preds = %41
  br label %59

59:                                               ; preds = %58
  %60 = load ptr, ptr %3, align 8, !tbaa !4
  %61 = getelementptr inbounds nuw %struct.OpusRangeCoder, ptr %60, i32 0, i32 6
  %62 = load ptr, ptr %61, align 8, !tbaa !31
  %63 = load ptr, ptr %3, align 8, !tbaa !4
  %64 = getelementptr inbounds nuw %struct.OpusRangeCoder, ptr %63, i32 0, i32 1
  %65 = getelementptr inbounds nuw %struct.RawBitsContext, ptr %64, i32 0, i32 0
  %66 = load ptr, ptr %65, align 8, !tbaa !27
  %67 = icmp ult ptr %62, %66
  br i1 %67, label %69, label %68

68:                                               ; preds = %59
  call void (ptr, i32, ptr, ...) @av_log(ptr noundef null, i32 noundef 0, ptr noundef @.str, ptr noundef @.str.1, ptr noundef @.str.2, i32 noundef 43)
  call void @abort() #11
  unreachable

69:                                               ; preds = %59
  br label %70

70:                                               ; preds = %69
  br label %71

71:                                               ; preds = %70
  %72 = load i32, ptr %4, align 4, !tbaa !13
  %73 = and i32 %72, 255
  %74 = load ptr, ptr %3, align 8, !tbaa !4
  %75 = getelementptr inbounds nuw %struct.OpusRangeCoder, ptr %74, i32 0, i32 8
  store i32 %73, ptr %75, align 4, !tbaa !43
  store i32 0, ptr %7, align 4
  br label %76

76:                                               ; preds = %71, %15
  call void @llvm.lifetime.end.p0(i64 4, ptr %6) #9
  call void @llvm.lifetime.end.p0(i64 4, ptr %5) #9
  %77 = load i32, ptr %7, align 4
  switch i32 %77, label %79 [
    i32 0, label %78
    i32 1, label %78
  ]

78:                                               ; preds = %76, %76
  ret void

79:                                               ; preds = %76
  unreachable
}

; Function Attrs: alwaysinline nounwind uwtable
define internal void @opus_rc_enc_normalize(ptr noundef %0) #2 {
  %2 = alloca ptr, align 8
  store ptr %0, ptr %2, align 8, !tbaa !4
  br label %3

3:                                                ; preds = %8, %1
  %4 = load ptr, ptr %2, align 8, !tbaa !4
  %5 = getelementptr inbounds nuw %struct.OpusRangeCoder, ptr %4, i32 0, i32 2
  %6 = load i32, ptr %5, align 8, !tbaa !15
  %7 = icmp ule i32 %6, 8388608
  br i1 %7, label %8, label %29

8:                                                ; preds = %3
  %9 = load ptr, ptr %2, align 8, !tbaa !4
  %10 = load ptr, ptr %2, align 8, !tbaa !4
  %11 = getelementptr inbounds nuw %struct.OpusRangeCoder, ptr %10, i32 0, i32 3
  %12 = load i32, ptr %11, align 4, !tbaa !20
  %13 = lshr i32 %12, 23
  call void @opus_rc_enc_carryout(ptr noundef %9, i32 noundef %13)
  %14 = load ptr, ptr %2, align 8, !tbaa !4
  %15 = getelementptr inbounds nuw %struct.OpusRangeCoder, ptr %14, i32 0, i32 3
  %16 = load i32, ptr %15, align 4, !tbaa !20
  %17 = shl i32 %16, 8
  %18 = and i32 %17, 2147483647
  %19 = load ptr, ptr %2, align 8, !tbaa !4
  %20 = getelementptr inbounds nuw %struct.OpusRangeCoder, ptr %19, i32 0, i32 3
  store i32 %18, ptr %20, align 4, !tbaa !20
  %21 = load ptr, ptr %2, align 8, !tbaa !4
  %22 = getelementptr inbounds nuw %struct.OpusRangeCoder, ptr %21, i32 0, i32 2
  %23 = load i32, ptr %22, align 8, !tbaa !15
  %24 = shl i32 %23, 8
  store i32 %24, ptr %22, align 8, !tbaa !15
  %25 = load ptr, ptr %2, align 8, !tbaa !4
  %26 = getelementptr inbounds nuw %struct.OpusRangeCoder, ptr %25, i32 0, i32 4
  %27 = load i32, ptr %26, align 8, !tbaa !23
  %28 = add i32 %27, 8
  store i32 %28, ptr %26, align 8, !tbaa !23
  br label %3, !llvm.loop !48

29:                                               ; preds = %3
  ret void
}

; Function Attrs: alwaysinline nounwind willreturn memory(none) uwtable
define internal i32 @ff_log2_c(i32 noundef %0) #3 {
  %2 = alloca i32, align 4
  %3 = alloca i32, align 4
  store i32 %0, ptr %2, align 4, !tbaa !13
  call void @llvm.lifetime.start.p0(i64 4, ptr %3) #9
  store i32 0, ptr %3, align 4, !tbaa !13
  %4 = load i32, ptr %2, align 4, !tbaa !13
  %5 = and i32 %4, -65536
  %6 = icmp ne i32 %5, 0
  br i1 %6, label %7, label %12

7:                                                ; preds = %1
  %8 = load i32, ptr %2, align 4, !tbaa !13
  %9 = lshr i32 %8, 16
  store i32 %9, ptr %2, align 4, !tbaa !13
  %10 = load i32, ptr %3, align 4, !tbaa !13
  %11 = add nsw i32 %10, 16
  store i32 %11, ptr %3, align 4, !tbaa !13
  br label %12

12:                                               ; preds = %7, %1
  %13 = load i32, ptr %2, align 4, !tbaa !13
  %14 = and i32 %13, 65280
  %15 = icmp ne i32 %14, 0
  br i1 %15, label %16, label %21

16:                                               ; preds = %12
  %17 = load i32, ptr %2, align 4, !tbaa !13
  %18 = lshr i32 %17, 8
  store i32 %18, ptr %2, align 4, !tbaa !13
  %19 = load i32, ptr %3, align 4, !tbaa !13
  %20 = add nsw i32 %19, 8
  store i32 %20, ptr %3, align 4, !tbaa !13
  br label %21

21:                                               ; preds = %16, %12
  %22 = load i32, ptr %2, align 4, !tbaa !13
  %23 = zext i32 %22 to i64
  %24 = getelementptr inbounds nuw [256 x i8], ptr @ff_log2_tab, i64 0, i64 %23
  %25 = load i8, ptr %24, align 1, !tbaa !28
  %26 = zext i8 %25 to i32
  %27 = load i32, ptr %3, align 4, !tbaa !13
  %28 = add nsw i32 %27, %26
  store i32 %28, ptr %3, align 4, !tbaa !13
  %29 = load i32, ptr %3, align 4, !tbaa !13
  call void @llvm.lifetime.end.p0(i64 4, ptr %3) #9
  ret i32 %29
}

; Function Attrs: alwaysinline nounwind uwtable
define internal void @opus_rc_enc_update(ptr noundef %0, i32 noundef %1, i32 noundef %2, i32 noundef %3, i32 noundef %4) #2 {
  %6 = alloca ptr, align 8
  %7 = alloca i32, align 4
  %8 = alloca i32, align 4
  %9 = alloca i32, align 4
  %10 = alloca i32, align 4
  %11 = alloca i32, align 4
  %12 = alloca i32, align 4
  store ptr %0, ptr %6, align 8, !tbaa !4
  store i32 %1, ptr %7, align 4, !tbaa !13
  store i32 %2, ptr %8, align 4, !tbaa !13
  store i32 %3, ptr %9, align 4, !tbaa !13
  store i32 %4, ptr %10, align 4, !tbaa !13
  call void @llvm.lifetime.start.p0(i64 4, ptr %11) #9
  call void @llvm.lifetime.start.p0(i64 4, ptr %12) #9
  %13 = load i32, ptr %7, align 4, !tbaa !13
  %14 = icmp ne i32 %13, 0
  %15 = xor i1 %14, true
  %16 = xor i1 %15, true
  %17 = zext i1 %16 to i32
  store i32 %17, ptr %12, align 4, !tbaa !13
  %18 = load i32, ptr %10, align 4, !tbaa !13
  %19 = icmp ne i32 %18, 0
  br i1 %19, label %20, label %27

20:                                               ; preds = %5
  %21 = load ptr, ptr %6, align 8, !tbaa !4
  %22 = getelementptr inbounds nuw %struct.OpusRangeCoder, ptr %21, i32 0, i32 2
  %23 = load i32, ptr %22, align 8, !tbaa !15
  %24 = load i32, ptr %9, align 4, !tbaa !13
  %25 = call i32 @ff_log2_c(i32 noundef %24) #10
  %26 = lshr i32 %23, %25
  store i32 %26, ptr %11, align 4, !tbaa !13
  br label %33

27:                                               ; preds = %5
  %28 = load ptr, ptr %6, align 8, !tbaa !4
  %29 = getelementptr inbounds nuw %struct.OpusRangeCoder, ptr %28, i32 0, i32 2
  %30 = load i32, ptr %29, align 8, !tbaa !15
  %31 = load i32, ptr %9, align 4, !tbaa !13
  %32 = udiv i32 %30, %31
  store i32 %32, ptr %11, align 4, !tbaa !13
  br label %33

33:                                               ; preds = %27, %20
  %34 = load i32, ptr %12, align 4, !tbaa !13
  %35 = load ptr, ptr %6, align 8, !tbaa !4
  %36 = getelementptr inbounds nuw %struct.OpusRangeCoder, ptr %35, i32 0, i32 2
  %37 = load i32, ptr %36, align 8, !tbaa !15
  %38 = load i32, ptr %11, align 4, !tbaa !13
  %39 = load i32, ptr %9, align 4, !tbaa !13
  %40 = load i32, ptr %7, align 4, !tbaa !13
  %41 = sub i32 %39, %40
  %42 = mul i32 %38, %41
  %43 = sub i32 %37, %42
  %44 = mul i32 %34, %43
  %45 = load ptr, ptr %6, align 8, !tbaa !4
  %46 = getelementptr inbounds nuw %struct.OpusRangeCoder, ptr %45, i32 0, i32 3
  %47 = load i32, ptr %46, align 4, !tbaa !20
  %48 = add i32 %47, %44
  store i32 %48, ptr %46, align 4, !tbaa !20
  %49 = load i32, ptr %12, align 4, !tbaa !13
  %50 = icmp ne i32 %49, 0
  %51 = xor i1 %50, true
  %52 = zext i1 %51 to i32
  %53 = load ptr, ptr %6, align 8, !tbaa !4
  %54 = getelementptr inbounds nuw %struct.OpusRangeCoder, ptr %53, i32 0, i32 2
  %55 = load i32, ptr %54, align 8, !tbaa !15
  %56 = load i32, ptr %11, align 4, !tbaa !13
  %57 = load i32, ptr %9, align 4, !tbaa !13
  %58 = load i32, ptr %8, align 4, !tbaa !13
  %59 = sub i32 %57, %58
  %60 = mul i32 %56, %59
  %61 = sub i32 %55, %60
  %62 = mul i32 %52, %61
  %63 = load i32, ptr %12, align 4, !tbaa !13
  %64 = load i32, ptr %11, align 4, !tbaa !13
  %65 = mul i32 %63, %64
  %66 = load i32, ptr %8, align 4, !tbaa !13
  %67 = load i32, ptr %7, align 4, !tbaa !13
  %68 = sub i32 %66, %67
  %69 = mul i32 %65, %68
  %70 = add i32 %62, %69
  %71 = load ptr, ptr %6, align 8, !tbaa !4
  %72 = getelementptr inbounds nuw %struct.OpusRangeCoder, ptr %71, i32 0, i32 2
  store i32 %70, ptr %72, align 8, !tbaa !15
  %73 = load ptr, ptr %6, align 8, !tbaa !4
  call void @opus_rc_enc_normalize(ptr noundef %73)
  call void @llvm.lifetime.end.p0(i64 4, ptr %12) #9
  call void @llvm.lifetime.end.p0(i64 4, ptr %11) #9
  ret void
}

; Function Attrs: nounwind uwtable
define void @ff_opus_rc_enc_log(ptr noundef %0, i32 noundef %1, i32 noundef %2) #0 {
  %4 = alloca ptr, align 8
  %5 = alloca i32, align 4
  %6 = alloca i32, align 4
  store ptr %0, ptr %4, align 8, !tbaa !4
  store i32 %1, ptr %5, align 4, !tbaa !13
  store i32 %2, ptr %6, align 4, !tbaa !13
  %7 = load i32, ptr %6, align 4, !tbaa !13
  %8 = shl i32 1, %7
  %9 = sub nsw i32 %8, 1
  store i32 %9, ptr %6, align 4, !tbaa !13
  %10 = load ptr, ptr %4, align 8, !tbaa !4
  %11 = load i32, ptr %5, align 4, !tbaa !13
  %12 = icmp ne i32 %11, 0
  %13 = xor i1 %12, true
  %14 = xor i1 %13, true
  %15 = zext i1 %14 to i32
  %16 = load i32, ptr %6, align 4, !tbaa !13
  %17 = mul i32 %15, %16
  %18 = load i32, ptr %6, align 4, !tbaa !13
  %19 = load i32, ptr %5, align 4, !tbaa !13
  %20 = icmp ne i32 %19, 0
  %21 = xor i1 %20, true
  %22 = xor i1 %21, true
  %23 = zext i1 %22 to i32
  %24 = add i32 %18, %23
  %25 = load i32, ptr %6, align 4, !tbaa !13
  %26 = add i32 %25, 1
  call void @opus_rc_enc_update(ptr noundef %10, i32 noundef %17, i32 noundef %24, i32 noundef %26, i32 noundef 1)
  ret void
}