; Function Attrs: nounwind uwtable
define void @ff_opus_rc_enc_log(ptr noundef captures(none) %0, i32 noundef %1, i32 noundef %2) local_unnamed_addr #1 {
  %4 = shl nuw i32 1, %2
  %5 = add nsw i32 %4, -1
  %6 = icmp ne i32 %1, 0
  %7 = zext i1 %6 to i32
  %8 = select i1 %6, i32 %5, i32 0
  %9 = add nuw nsw i32 %5, %7
  %10 = getelementptr inbounds nuw i8, ptr %0, i64 56
  %11 = load i32, ptr %10, align 8, !tbaa !8
  %.not.i = icmp ult i32 %2, 16
  %12 = lshr i32 %4, 16
  %spec.select.i = select i1 %.not.i, i32 %4, i32 %12
  %spec.select12.i = select i1 %.not.i, i32 0, i32 16
  %.not11.i = icmp samesign ult i32 %spec.select.i, 256
  %13 = lshr i32 %spec.select.i, 8
  %14 = or disjoint i32 %spec.select12.i, 8
  %.110.i = select i1 %.not11.i, i32 %spec.select.i, i32 %13
  %.1.i = select i1 %.not11.i, i32 %spec.select12.i, i32 %14
  %15 = zext nneg i32 %.110.i to i64
  %16 = getelementptr inbounds nuw [256 x i8], ptr @ff_log2_tab, i64 0, i64 %15
  %17 = load i8, ptr %16, align 1, !tbaa !22
  %18 = zext i8 %17 to i32
  %19 = add nuw nsw i32 %.1.i, %18
  %20 = lshr i32 %11, %19
  %.not25.i = icmp eq i32 %8, 0
  %.neg.i = sub i32 %8, %4
  %.neg22.i = mul i32 %20, %.neg.i
  %21 = add i32 %.neg22.i, %11
  %22 = select i1 %.not25.i, i32 0, i32 %21
  %23 = getelementptr inbounds nuw i8, ptr %0, i64 60
  %24 = load i32, ptr %23, align 4, !tbaa !15
  %25 = add i32 %22, %24
  store i32 %25, ptr %23, align 4, !tbaa !15
  %.neg23.i = sub i32 %9, %4
  %.neg24.i = mul i32 %20, %.neg23.i
  %26 = add i32 %.neg24.i, %11
  %27 = select i1 %.not25.i, i32 %26, i32 0
  %28 = select i1 %.not25.i, i32 0, i32 %20
  %29 = sub nsw i32 %9, %8
  %30 = mul i32 %28, %29
  %31 = add i32 %27, %30
  store i32 %31, ptr %10, align 8, !tbaa !8
  %32 = icmp ult i32 %31, 8388609
  br i1 %32, label %.lr.ph7, label %opus_rc_enc_normalize.exit

.lr.ph7:                                          ; preds = %3
  %33 = getelementptr inbounds nuw i8, ptr %0, i64 1372
  %34 = getelementptr inbounds nuw i8, ptr %0, i64 1360
  %35 = getelementptr inbounds nuw i8, ptr %0, i64 1368
  %36 = getelementptr inbounds nuw i8, ptr %0, i64 32
  %37 = getelementptr inbounds nuw i8, ptr %0, i64 64
  br label %38

38:                                               ; preds = %.lr.ph7, %opus_rc_enc_carryout.exit.i
  %39 = phi i32 [ %31, %.lr.ph7 ], [ %77, %opus_rc_enc_carryout.exit.i ]
  %40 = phi i32 [ %25, %.lr.ph7 ], [ %76, %opus_rc_enc_carryout.exit.i ]
  %41 = lshr i32 %40, 23
  %42 = lshr i32 %40, 31
  %43 = icmp eq i32 %41, 255
  br i1 %43, label %44, label %47

44:                                               ; preds = %38
  %45 = load i32, ptr %35, align 8, !tbaa !24
  %46 = add nsw i32 %45, 1
  store i32 %46, ptr %35, align 8, !tbaa !24
  br label %opus_rc_enc_carryout.exit.i

47:                                               ; preds = %38
  %48 = load i32, ptr %33, align 4, !tbaa !25
  %49 = add nsw i32 %48, %42
  %50 = trunc i32 %49 to i8
  %51 = load ptr, ptr %34, align 8, !tbaa !26
  store i8 %50, ptr %51, align 1, !tbaa !22
  %52 = load i32, ptr %33, align 4, !tbaa !25
  %53 = icmp sgt i32 %52, -1
  %54 = load ptr, ptr %34, align 8, !tbaa !26
  %55 = zext i1 %53 to i64
  %56 = getelementptr inbounds nuw i8, ptr %54, i64 %55
  store ptr %56, ptr %34, align 8, !tbaa !26
  %57 = load i32, ptr %35, align 8, !tbaa !24
  %58 = icmp sgt i32 %57, 0
  br i1 %58, label %.lr.ph, label %._crit_edge

.lr.ph:                                           ; preds = %47
  %59 = trunc nuw nsw i32 %42 to i8
  %60 = add nsw i8 %59, -1
  br label %61

61:                                               ; preds = %.lr.ph, %61
  %62 = load ptr, ptr %34, align 8, !tbaa !26
  %63 = getelementptr inbounds nuw i8, ptr %62, i64 1
  store ptr %63, ptr %34, align 8, !tbaa !26
  store i8 %60, ptr %62, align 1, !tbaa !22
  %64 = load i32, ptr %35, align 8, !tbaa !24
  %65 = add nsw i32 %64, -1
  store i32 %65, ptr %35, align 8, !tbaa !24
  %66 = icmp sgt i32 %64, 1
  br i1 %66, label %61, label %._crit_edge.loopexit, !llvm.loop !27

._crit_edge.loopexit:                             ; preds = %61
  %.pre = load ptr, ptr %34, align 8, !tbaa !26
  br label %._crit_edge

._crit_edge:                                      ; preds = %._crit_edge.loopexit, %47
  %67 = phi ptr [ %.pre, %._crit_edge.loopexit ], [ %56, %47 ]
  %68 = load ptr, ptr %36, align 8, !tbaa !28
  %69 = icmp ult ptr %67, %68
  br i1 %69, label %71, label %70

70:                                               ; preds = %._crit_edge
  tail call void (ptr, i32, ptr, ...) @av_log(ptr noundef null, i32 noundef 0, ptr noundef nonnull @.str, ptr noundef nonnull @.str.1, ptr noundef nonnull @.str.2, i32 noundef 43) #8
  tail call void @abort() #9
  unreachable

71:                                               ; preds = %._crit_edge
  %72 = and i32 %41, 255
  store i32 %72, ptr %33, align 4, !tbaa !25
  %.pre8 = load i32, ptr %23, align 4, !tbaa !15
  %.pre9 = load i32, ptr %10, align 8, !tbaa !8
  br label %opus_rc_enc_carryout.exit.i

opus_rc_enc_carryout.exit.i:                      ; preds = %71, %44
  %73 = phi i32 [ %.pre9, %71 ], [ %39, %44 ]
  %74 = phi i32 [ %.pre8, %71 ], [ %40, %44 ]
  %75 = shl i32 %74, 8
  %76 = and i32 %75, 2147483392
  store i32 %76, ptr %23, align 4, !tbaa !15
  %77 = shl i32 %73, 8
  store i32 %77, ptr %10, align 8, !tbaa !8
  %78 = load i32, ptr %37, align 8, !tbaa !21
  %79 = add i32 %78, 8
  store i32 %79, ptr %37, align 8, !tbaa !21
  %80 = icmp ult i32 %77, 8388609
  br i1 %80, label %38, label %opus_rc_enc_normalize.exit, !llvm.loop !29

opus_rc_enc_normalize.exit:                       ; preds = %opus_rc_enc_carryout.exit.i, %3
  ret void
}